target datalayout = "e-m:e-p270:32:32-p271:32:32-p272:64:64-i64:64-i128:128-f80:128-n8:16:32:64-S128"
target triple = "x86_64-pc-linux-gnu"

%struct.AVProbeData = type { ptr, ptr, i32, ptr }

@.str.139 = private unnamed_addr constant [7 x i8] c"pgmyuv\00", align 1

; Function Attrs: inlinehint nounwind uwtable
define internal i32 @pnm_probe(ptr noundef %0) #7 {
  %2 = alloca i32, align 4
  %3 = alloca ptr, align 8
  %4 = alloca ptr, align 8
  %5 = alloca i32, align 4
  store ptr %0, ptr %3, align 8, !tbaa !139
  call void @llvm.lifetime.start.p0(i64 8, ptr %4) #12
  %6 = load ptr, ptr %3, align 8, !tbaa !139
  %7 = getelementptr inbounds nuw %struct.AVProbeData, ptr %6, i32 0, i32 1
  %8 = load ptr, ptr %7, align 8, !tbaa !96
  store ptr %8, ptr %4, align 8, !tbaa !76
  br label %9

9:                                                ; preds = %15, %1
  %10 = load ptr, ptr %4, align 8, !tbaa !76
  %11 = getelementptr inbounds i8, ptr %10, i64 2
  %12 = load i8, ptr %11, align 1, !tbaa !77
  %13 = zext i8 %12 to i32
  %14 = icmp eq i32 %13, 13
  br i1 %14, label %15, label %18

15:                                               ; preds = %9
  %16 = load ptr, ptr %4, align 8, !tbaa !76
  %17 = getelementptr inbounds nuw i8, ptr %16, i32 1
  store ptr %17, ptr %4, align 8, !tbaa !76
  br label %9, !llvm.loop !150

18:                                               ; preds = %9
  %19 = load ptr, ptr %4, align 8, !tbaa !76
  %20 = getelementptr inbounds i8, ptr %19, i64 2
  %21 = load i8, ptr %20, align 1, !tbaa !77
  %22 = zext i8 %21 to i32
  %23 = icmp eq i32 %22, 10
  br i1 %23, label %24, label %43

24:                                               ; preds = %18
  %25 = load ptr, ptr %4, align 8, !tbaa !76
  %26 = getelementptr inbounds i8, ptr %25, i64 3
  %27 = load i8, ptr %26, align 1, !tbaa !77
  %28 = zext i8 %27 to i32
  %29 = icmp eq i32 %28, 35
  br i1 %29, label %42, label %30

30:                                               ; preds = %24
  %31 = load ptr, ptr %4, align 8, !tbaa !76
  %32 = getelementptr inbounds i8, ptr %31, i64 3
  %33 = load i8, ptr %32, align 1, !tbaa !77
  %34 = zext i8 %33 to i32
  %35 = icmp sge i32 %34, 48
  br i1 %35, label %36, label %43

36:                                               ; preds = %30
  %37 = load ptr, ptr %4, align 8, !tbaa !76
  %38 = getelementptr inbounds i8, ptr %37, i64 3
  %39 = load i8, ptr %38, align 1, !tbaa !77
  %40 = zext i8 %39 to i32
  %41 = icmp sle i32 %40, 57
  br i1 %41, label %42, label %43

42:                                               ; preds = %36, %24
  store i32 52, ptr %2, align 4
  store i32 1, ptr %5, align 4
  br label %44

43:                                               ; preds = %36, %30, %18
  store i32 0, ptr %2, align 4
  store i32 1, ptr %5, align 4
  br label %44

44:                                               ; preds = %43, %42
  call void @llvm.lifetime.end.p0(i64 8, ptr %4) #12
  %45 = load i32, ptr %2, align 4
  ret i32 %45
}

; Function Attrs: nounwind uwtable
define internal i32 @pnm_magic_check(ptr noundef %0, i32 noundef %1) #0 {
  %3 = alloca ptr, align 8
  %4 = alloca i32, align 4
  %5 = alloca ptr, align 8
  store ptr %0, ptr %3, align 8, !tbaa !139
  store i32 %1, ptr %4, align 4, !tbaa !28
  call void @llvm.lifetime.start.p0(i64 8, ptr %5) #12
  %6 = load ptr, ptr %3, align 8, !tbaa !139
  %7 = getelementptr inbounds nuw %struct.AVProbeData, ptr %6, i32 0, i32 1
  %8 = load ptr, ptr %7, align 8, !tbaa !96
  store ptr %8, ptr %5, align 8, !tbaa !76
  %9 = load ptr, ptr %5, align 8, !tbaa !76
  %10 = getelementptr inbounds i8, ptr %9, i64 0
  %11 = load i8, ptr %10, align 1, !tbaa !77
  %12 = zext i8 %11 to i32
  %13 = icmp eq i32 %12, 80
  br i1 %13, label %14, label %22

14:                                               ; preds = %2
  %15 = load ptr, ptr %5, align 8, !tbaa !76
  %16 = getelementptr inbounds i8, ptr %15, i64 1
  %17 = load i8, ptr %16, align 1, !tbaa !77
  %18 = zext i8 %17 to i32
  %19 = load i32, ptr %4, align 4, !tbaa !28
  %20 = add nsw i32 %19, 48
  %21 = icmp eq i32 %18, %20
  br label %22

22:                                               ; preds = %14, %2
  %23 = phi i1 [ false, %2 ], [ %21, %14 ]
  %24 = zext i1 %23 to i32
  call void @llvm.lifetime.end.p0(i64 8, ptr %5) #12
  ret i32 %24
}

; Function Attrs: inlinehint nounwind uwtable
define internal i32 @pgmx_probe(ptr noundef %0) #7 {
  %2 = alloca ptr, align 8
  store ptr %0, ptr %2, align 8, !tbaa !139
  %3 = load ptr, ptr %2, align 8, !tbaa !139
  %4 = call i32 @pnm_magic_check(ptr noundef %3, i32 noundef 2)
  %5 = icmp ne i32 %4, 0
  br i1 %5, label %10, label %6

6:                                                ; preds = %1
  %7 = load ptr, ptr %2, align 8, !tbaa !139
  %8 = call i32 @pnm_magic_check(ptr noundef %7, i32 noundef 5)
  %9 = icmp ne i32 %8, 0
  br i1 %9, label %10, label %13

10:                                               ; preds = %6, %1
  %11 = load ptr, ptr %2, align 8, !tbaa !139
  %12 = call i32 @pnm_probe(ptr noundef %11)
  br label %14

13:                                               ; preds = %6
  br label %14

14:                                               ; preds = %13, %10
  %15 = phi i32 [ %12, %10 ], [ 0, %13 ]
  ret i32 %15
}

; Function Attrs: nounwind uwtable
define internal i32 @pgm_probe(ptr noundef %0) #0 {
  %2 = alloca ptr, align 8
  %3 = alloca i32, align 4
  store ptr %0, ptr %2, align 8, !tbaa !139
  call void @llvm.lifetime.start.p0(i64 4, ptr %3) #12
  %4 = load ptr, ptr %2, align 8, !tbaa !139
  %5 = call i32 @pgmx_probe(ptr noundef %4)
  store i32 %5, ptr %3, align 4, !tbaa !28
  %6 = load i32, ptr %3, align 4, !tbaa !28
  %7 = icmp ne i32 %6, 0
  br i1 %7, label %8, label %16

8:                                                ; preds = %1
  %9 = load ptr, ptr %2, align 8, !tbaa !139
  %10 = getelementptr inbounds nuw %struct.AVProbeData, ptr %9, i32 0, i32 0
  %11 = load ptr, ptr %10, align 8, !tbaa !98
  %12 = call i32 @av_match_ext(ptr noundef %11, ptr noundef @.str.139)
  %13 = icmp ne i32 %12, 0
  br i1 %13, label %16, label %14

14:                                               ; preds = %8
  %15 = load i32, ptr %3, align 4, !tbaa !28
  br label %17

16:                                               ; preds = %8, %1
  br label %17

17:                                               ; preds = %16, %14
  %18 = phi i32 [ %15, %14 ], [ 0, %16 ]
  call void @llvm.lifetime.end.p0(i64 4, ptr %3) #12
  ret i32 %18
}