; Function Attrs: nounwind uwtable
define internal range(i32 0, 53) i32 @pgm_probe(ptr noundef readonly captures(none) %0) #0 {
  %2 = getelementptr i8, ptr %0, i64 8
  %.val = load ptr, ptr %2, align 8, !tbaa !90
  %3 = load i8, ptr %.val, align 1, !tbaa !68
  %4 = icmp eq i8 %3, 80
  br i1 %4, label %pnm_magic_check.exit.i, label %pgmx_probe.exit.thread

pnm_magic_check.exit.i:                           ; preds = %1
  %5 = getelementptr inbounds nuw i8, ptr %.val, i64 1
  %6 = load i8, ptr %5, align 1, !tbaa !68
  switch i8 %6, label %pgmx_probe.exit.thread [
    i8 50, label %.preheader
    i8 53, label %.preheader
  ]

.preheader:                                       ; preds = %pnm_magic_check.exit.i, %pnm_magic_check.exit.i
  br label %7

7:                                                ; preds = %.preheader, %10
  %.0.i.i = phi ptr [ %11, %10 ], [ %.val, %.preheader ]
  %8 = getelementptr inbounds nuw i8, ptr %.0.i.i, i64 2
  %9 = load i8, ptr %8, align 1, !tbaa !68
  switch i8 %9, label %pgmx_probe.exit.thread [
    i8 13, label %10
    i8 10, label %12
  ]

10:                                               ; preds = %7
  %11 = getelementptr inbounds nuw i8, ptr %.0.i.i, i64 1
  br label %7, !llvm.loop !131

12:                                               ; preds = %7
  %13 = getelementptr inbounds nuw i8, ptr %.0.i.i, i64 3
  %14 = load i8, ptr %13, align 1, !tbaa !68
  %15 = icmp eq i8 %14, 35
  %16 = add i8 %14, -48
  %or.cond.i.i = icmp ult i8 %16, 10
  %or.cond1.i.i = or i1 %15, %or.cond.i.i
  br i1 %or.cond1.i.i, label %pgmx_probe.exit, label %pgmx_probe.exit.thread

pgmx_probe.exit:                                  ; preds = %12
  %17 = load ptr, ptr %0, align 8, !tbaa !92
  %18 = tail call i32 @av_match_ext(ptr noundef %17, ptr noundef nonnull @.str.139) #14
  %.not3 = icmp eq i32 %18, 0
  %spec.select = select i1 %.not3, i32 52, i32 0
  br label %pgmx_probe.exit.thread

pgmx_probe.exit.thread:                           ; preds = %7, %12, %pnm_magic_check.exit.i, %1, %pgmx_probe.exit
  %19 = phi i32 [ %spec.select, %pgmx_probe.exit ], [ 0, %1 ], [ 0, %pnm_magic_check.exit.i ], [ 0, %12 ], [ 0, %7 ]
  ret i32 %19
}